target datalayout = "e-m:e-p270:32:32-p271:32:32-p272:64:64-i64:64-i128:128-f80:128-n8:16:32:64-S128"
target triple = "x86_64-pc-linux-gnu"

%struct.aiNode = type { %struct.aiString, %class.aiMatrix4x4t, ptr, i32, ptr, i32, ptr, ptr }
%struct.aiString = type { i32, [1024 x i8] }
%class.aiMatrix4x4t = type { float, float, float, float, float, float, float, float, float, float, float, float, float, float, float, float }

; Function Attrs: mustprogress nounwind uwtable
define linkonce_odr hidden noundef nonnull align 4 dereferenceable(1028) ptr @_ZN8aiStringaSERKS_(ptr noundef nonnull align 4 dereferenceable(1028) %0, ptr noundef nonnull align 4 dereferenceable(1028) %1) #4 comdat align 2 {
  %3 = alloca ptr, align 8
  %4 = alloca ptr, align 8
  %5 = alloca ptr, align 8
  store ptr %0, ptr %4, align 8
  store ptr %1, ptr %5, align 8
  %6 = load ptr, ptr %4, align 8
  %7 = load ptr, ptr %5, align 8
  %8 = icmp eq ptr %6, %7
  br i1 %8, label %9, label %10

9:                                                ; preds = %2
  store ptr %6, ptr %3, align 8
  br label %35

10:                                               ; preds = %2
  %11 = load ptr, ptr %5, align 8
  %12 = getelementptr inbounds nuw %struct.aiString, ptr %11, i32 0, i32 0
  %13 = load i32, ptr %12, align 4
  %14 = getelementptr inbounds nuw %struct.aiString, ptr %6, i32 0, i32 0
  store i32 %13, ptr %14, align 4
  %15 = getelementptr inbounds nuw %struct.aiString, ptr %6, i32 0, i32 0
  %16 = load i32, ptr %15, align 4
  %17 = zext i32 %16 to i64
  %18 = icmp ugt i64 %17, 1023
  br i1 %18, label %19, label %21

19:                                               ; preds = %10
  %20 = getelementptr inbounds nuw %struct.aiString, ptr %6, i32 0, i32 0
  store i32 1023, ptr %20, align 4
  br label %21

21:                                               ; preds = %19, %10
  %22 = getelementptr inbounds nuw %struct.aiString, ptr %6, i32 0, i32 1
  %23 = getelementptr inbounds [1024 x i8], ptr %22, i64 0, i64 0
  %24 = load ptr, ptr %5, align 8
  %25 = getelementptr inbounds nuw %struct.aiString, ptr %24, i32 0, i32 1
  %26 = getelementptr inbounds [1024 x i8], ptr %25, i64 0, i64 0
  %27 = getelementptr inbounds nuw %struct.aiString, ptr %6, i32 0, i32 0
  %28 = load i32, ptr %27, align 4
  %29 = zext i32 %28 to i64
  call void @llvm.memcpy.p0.p0.i64(ptr align 4 %23, ptr align 4 %26, i64 %29, i1 false)
  %30 = getelementptr inbounds nuw %struct.aiString, ptr %6, i32 0, i32 1
  %31 = getelementptr inbounds nuw %struct.aiString, ptr %6, i32 0, i32 0
  %32 = load i32, ptr %31, align 4
  %33 = zext i32 %32 to i64
  %34 = getelementptr inbounds nuw [1024 x i8], ptr %30, i64 0, i64 %33
  store i8 0, ptr %34, align 1
  store ptr %6, ptr %3, align 8
  br label %35

35:                                               ; preds = %21, %9
  %36 = load ptr, ptr %3, align 8
  ret ptr %36
}

; Function Attrs: inlinehint mustprogress uwtable
define linkonce_odr hidden void @_ZN6Assimp12CopyPtrArrayI6aiNodeEEvRPPT_PKPKS2_j(ptr noundef nonnull align 8 dereferenceable(8) %0, ptr noundef %1, i32 noundef %2) #3 comdat {
  %4 = alloca ptr, align 8
  %5 = alloca ptr, align 8
  %6 = alloca i32, align 4
  %7 = alloca i32, align 4
  store ptr %0, ptr %4, align 8
  store ptr %1, ptr %5, align 8
  store i32 %2, ptr %6, align 4
  %8 = load i32, ptr %6, align 4
  %9 = icmp ne i32 %8, 0
  br i1 %9, label %12, label %10

10:                                               ; preds = %3
  %11 = load ptr, ptr %4, align 8
  store ptr null, ptr %11, align 8
  br label %40

12:                                               ; preds = %3
  %13 = load i32, ptr %6, align 4
  %14 = zext i32 %13 to i64
  %15 = call { i64, i1 } @llvm.umul.with.overflow.i64(i64 %14, i64 8)
  %16 = extractvalue { i64, i1 } %15, 1
  %17 = extractvalue { i64, i1 } %15, 0
  %18 = select i1 %16, i64 -1, i64 %17
  %19 = call noalias noundef nonnull ptr @_Znam(i64 noundef %18) #19
  %20 = load ptr, ptr %4, align 8
  store ptr %19, ptr %20, align 8
  call void @llvm.lifetime.start.p0(i64 4, ptr %7) #17
  store i32 0, ptr %7, align 4
  br label %21

21:                                               ; preds = %37, %12
  %22 = load i32, ptr %7, align 4
  %23 = load i32, ptr %6, align 4
  %24 = icmp ult i32 %22, %23
  br i1 %24, label %26, label %25

25:                                               ; preds = %21
  call void @llvm.lifetime.end.p0(i64 4, ptr %7) #17
  br label %40

26:                                               ; preds = %21
  %27 = load ptr, ptr %4, align 8
  %28 = load ptr, ptr %27, align 8
  %29 = load i32, ptr %7, align 4
  %30 = zext i32 %29 to i64
  %31 = getelementptr inbounds nuw ptr, ptr %28, i64 %30
  %32 = load ptr, ptr %5, align 8
  %33 = load i32, ptr %7, align 4
  %34 = zext i32 %33 to i64
  %35 = getelementptr inbounds nuw ptr, ptr %32, i64 %34
  %36 = load ptr, ptr %35, align 8
  call void @_ZN6Assimp13SceneCombiner4CopyEPP6aiNodePKS1_(ptr noundef %31, ptr noundef %36)
  br label %37

37:                                               ; preds = %26
  %38 = load i32, ptr %7, align 4
  %39 = add i32 %38, 1
  store i32 %39, ptr %7, align 4
  br label %21, !llvm.loop !92

40:                                               ; preds = %10, %25
  ret void
}

; Function Attrs: inlinehint mustprogress uwtable
define linkonce_odr hidden void @_ZN6Assimp12GetArrayCopyIjEEvRPT_j(ptr noundef nonnull align 8 dereferenceable(8) %0, i32 noundef %1) #3 comdat {
  %3 = alloca ptr, align 8
  %4 = alloca i32, align 4
  %5 = alloca ptr, align 8
  store ptr %0, ptr %3, align 8
  store i32 %1, ptr %4, align 4
  %6 = load ptr, ptr %3, align 8
  %7 = load ptr, ptr %6, align 8
  %8 = icmp ne ptr %7, null
  br i1 %8, label %10, label %9

9:                                                ; preds = %2
  br label %27

10:                                               ; preds = %2
  call void @llvm.lifetime.start.p0(i64 8, ptr %5) #17
  %11 = load ptr, ptr %3, align 8
  %12 = load ptr, ptr %11, align 8
  store ptr %12, ptr %5, align 8
  %13 = load i32, ptr %4, align 4
  %14 = zext i32 %13 to i64
  %15 = call { i64, i1 } @llvm.umul.with.overflow.i64(i64 %14, i64 4)
  %16 = extractvalue { i64, i1 } %15, 1
  %17 = extractvalue { i64, i1 } %15, 0
  %18 = select i1 %16, i64 -1, i64 %17
  %19 = call noalias noundef nonnull ptr @_Znam(i64 noundef %18) #19
  %20 = load ptr, ptr %3, align 8
  store ptr %19, ptr %20, align 8
  %21 = load ptr, ptr %3, align 8
  %22 = load ptr, ptr %21, align 8
  %23 = load ptr, ptr %5, align 8
  %24 = load i32, ptr %4, align 4
  %25 = zext i32 %24 to i64
  %26 = mul i64 4, %25
  call void @llvm.memcpy.p0.p0.i64(ptr align 4 %22, ptr align 4 %23, i64 %26, i1 false)
  call void @llvm.lifetime.end.p0(i64 8, ptr %5) #17
  br label %27

27:                                               ; preds = %10, %9
  ret void
}

; Function Attrs: inlinehint mustprogress nounwind uwtable
define linkonce_odr noundef nonnull align 8 dereferenceable(1144) ptr @_ZN6aiNodeaSERKS_(ptr noundef nonnull align 8 dereferenceable(1144) %0, ptr noundef nonnull align 8 dereferenceable(1144) %1) #2 comdat align 2 {
  %3 = alloca ptr, align 8
  %4 = alloca ptr, align 8
  store ptr %0, ptr %3, align 8
  store ptr %1, ptr %4, align 8
  %5 = load ptr, ptr %3, align 8
  %6 = getelementptr inbounds nuw %struct.aiNode, ptr %5, i32 0, i32 0
  %7 = load ptr, ptr %4, align 8
  %8 = getelementptr inbounds nuw %struct.aiNode, ptr %7, i32 0, i32 0
  %9 = call noundef nonnull align 4 dereferenceable(1028) ptr @_ZN8aiStringaSERKS_(ptr noundef nonnull align 4 dereferenceable(1028) %6, ptr noundef nonnull align 4 dereferenceable(1028) %8)
  %10 = getelementptr inbounds nuw %struct.aiNode, ptr %5, i32 0, i32 1
  %11 = load ptr, ptr %4, align 8
  %12 = getelementptr inbounds nuw %struct.aiNode, ptr %11, i32 0, i32 1
  call void @llvm.memcpy.p0.p0.i64(ptr align 4 %10, ptr align 4 %12, i64 116, i1 false)
  ret ptr %5
}

; Function Attrs: mustprogress uwtable
define void @_ZN6Assimp13SceneCombiner4CopyEPP6aiNodePKS1_(ptr noundef %0, ptr noundef %1) #0 align 2 personality ptr @__gxx_personality_v0 {
  %3 = alloca ptr, align 8
  %4 = alloca ptr, align 8
  %5 = alloca ptr, align 8
  %6 = alloca ptr, align 8
  %7 = alloca i32, align 4
  %8 = alloca i32, align 4
  store ptr %0, ptr %3, align 8
  store ptr %1, ptr %4, align 8
  call void @llvm.lifetime.start.p0(i64 8, ptr %5) #17
  %9 = call noalias noundef nonnull ptr @_Znwm(i64 noundef 1144) #19
  invoke void @_ZN6aiNodeC1Ev(ptr noundef nonnull align 8 dereferenceable(1144) %9)
          to label %10 unwind label %25

10:                                               ; preds = %2
  %11 = load ptr, ptr %3, align 8
  store ptr %9, ptr %11, align 8
  store ptr %9, ptr %5, align 8
  %12 = load ptr, ptr %4, align 8
  %13 = load ptr, ptr %5, align 8
  %14 = call noundef nonnull align 8 dereferenceable(1144) ptr @_ZN6aiNodeaSERKS_(ptr noundef nonnull align 8 dereferenceable(1144) %13, ptr noundef nonnull align 8 dereferenceable(1144) %12)
  %15 = load ptr, ptr %4, align 8
  %16 = getelementptr inbounds nuw %struct.aiNode, ptr %15, i32 0, i32 7
  %17 = load ptr, ptr %16, align 8
  %18 = icmp ne ptr %17, null
  br i1 %18, label %19, label %29

19:                                               ; preds = %10
  %20 = load ptr, ptr %5, align 8
  %21 = getelementptr inbounds nuw %struct.aiNode, ptr %20, i32 0, i32 7
  %22 = load ptr, ptr %4, align 8
  %23 = getelementptr inbounds nuw %struct.aiNode, ptr %22, i32 0, i32 7
  %24 = load ptr, ptr %23, align 8
  call void @_ZN6Assimp13SceneCombiner4CopyEPP10aiMetadataPKS1_(ptr noundef %21, ptr noundef %24)
  br label %29

25:                                               ; preds = %2
  %26 = landingpad { ptr, i32 }
          cleanup
  %27 = extractvalue { ptr, i32 } %26, 0
  store ptr %27, ptr %6, align 8
  %28 = extractvalue { ptr, i32 } %26, 1
  store i32 %28, ptr %7, align 4
  call void @_ZdlPvm(ptr noundef %9, i64 noundef 1144) #20
  call void @llvm.lifetime.end.p0(i64 8, ptr %5) #17
  br label %64

29:                                               ; preds = %19, %10
  %30 = load ptr, ptr %5, align 8
  %31 = getelementptr inbounds nuw %struct.aiNode, ptr %30, i32 0, i32 6
  %32 = load ptr, ptr %5, align 8
  %33 = getelementptr inbounds nuw %struct.aiNode, ptr %32, i32 0, i32 5
  %34 = load i32, ptr %33, align 8
  call void @_ZN6Assimp12GetArrayCopyIjEEvRPT_j(ptr noundef nonnull align 8 dereferenceable(8) %31, i32 noundef %34)
  %35 = load ptr, ptr %5, align 8
  %36 = getelementptr inbounds nuw %struct.aiNode, ptr %35, i32 0, i32 4
  %37 = load ptr, ptr %4, align 8
  %38 = getelementptr inbounds nuw %struct.aiNode, ptr %37, i32 0, i32 4
  %39 = load ptr, ptr %38, align 8
  %40 = load ptr, ptr %5, align 8
  %41 = getelementptr inbounds nuw %struct.aiNode, ptr %40, i32 0, i32 3
  %42 = load i32, ptr %41, align 8
  call void @_ZN6Assimp12CopyPtrArrayI6aiNodeEEvRPPT_PKPKS2_j(ptr noundef nonnull align 8 dereferenceable(8) %36, ptr noundef %39, i32 noundef %42)
  call void @llvm.lifetime.start.p0(i64 4, ptr %8) #17
  store i32 0, ptr %8, align 4
  br label %43

43:                                               ; preds = %60, %29
  %44 = load i32, ptr %8, align 4
  %45 = load ptr, ptr %5, align 8
  %46 = getelementptr inbounds nuw %struct.aiNode, ptr %45, i32 0, i32 3
  %47 = load i32, ptr %46, align 8
  %48 = icmp ult i32 %44, %47
  br i1 %48, label %50, label %49

49:                                               ; preds = %43
  call void @llvm.lifetime.end.p0(i64 4, ptr %8) #17
  br label %63

50:                                               ; preds = %43
  %51 = load ptr, ptr %5, align 8
  %52 = load ptr, ptr %5, align 8
  %53 = getelementptr inbounds nuw %struct.aiNode, ptr %52, i32 0, i32 4
  %54 = load ptr, ptr %53, align 8
  %55 = load i32, ptr %8, align 4
  %56 = zext i32 %55 to i64
  %57 = getelementptr inbounds nuw ptr, ptr %54, i64 %56
  %58 = load ptr, ptr %57, align 8
  %59 = getelementptr inbounds nuw %struct.aiNode, ptr %58, i32 0, i32 2
  store ptr %51, ptr %59, align 8
  br label %60

60:                                               ; preds = %50
  %61 = load i32, ptr %8, align 4
  %62 = add i32 %61, 1
  store i32 %62, ptr %8, align 4
  br label %43, !llvm.loop !48

63:                                               ; preds = %49
  call void @llvm.lifetime.end.p0(i64 8, ptr %5) #17
  ret void

64:                                               ; preds = %25
  %65 = load ptr, ptr %6, align 8
  %66 = load i32, ptr %7, align 4
  %67 = insertvalue { ptr, i32 } poison, ptr %65, 0
  %68 = insertvalue { ptr, i32 } %67, i32 %66, 1
  resume { ptr, i32 } %68
}