; Function Attrs: mustprogress uwtable
define void @_ZN6Assimp13SceneCombiner4CopyEPP6aiNodePKS1_(ptr noundef writeonly captures(none) %0, ptr noundef readonly captures(address) %1) local_unnamed_addr #0 align 2 personality ptr @__gxx_personality_v0 {
  %3 = tail call noalias noundef nonnull dereferenceable(1144) ptr @_Znwm(i64 noundef 1144) #22
  invoke void @_ZN6aiNodeC1Ev(ptr noundef nonnull align 8 dereferenceable(1144) %3)
          to label %4 unwind label %18

4:                                                ; preds = %2
  store ptr %3, ptr %0, align 8
  %5 = icmp eq ptr %3, %1
  br i1 %5, label %_ZN6aiNodeaSERKS_.exit, label %6

6:                                                ; preds = %4
  %7 = load i32, ptr %1, align 4
  %spec.select.i.i = tail call i32 @llvm.umin.i32(i32 %7, i32 1023)
  store i32 %spec.select.i.i, ptr %3, align 4
  %8 = getelementptr inbounds nuw i8, ptr %3, i64 4
  %9 = getelementptr inbounds nuw i8, ptr %1, i64 4
  %10 = zext nneg i32 %spec.select.i.i to i64
  tail call void @llvm.memcpy.p0.p0.i64(ptr nonnull align 4 %8, ptr nonnull align 4 %9, i64 %10, i1 false)
  %11 = getelementptr inbounds nuw [1024 x i8], ptr %8, i64 0, i64 %10
  store i8 0, ptr %11, align 1
  br label %_ZN6aiNodeaSERKS_.exit

_ZN6aiNodeaSERKS_.exit:                           ; preds = %4, %6
  %12 = getelementptr inbounds nuw i8, ptr %3, i64 1028
  %13 = getelementptr inbounds nuw i8, ptr %1, i64 1028
  tail call void @llvm.memcpy.p0.p0.i64(ptr noundef nonnull align 4 dereferenceable(116) %12, ptr noundef nonnull align 4 dereferenceable(116) %13, i64 116, i1 false)
  %14 = getelementptr inbounds nuw i8, ptr %1, i64 1136
  %15 = load ptr, ptr %14, align 8
  %.not = icmp eq ptr %15, null
  br i1 %.not, label %20, label %16

16:                                               ; preds = %_ZN6aiNodeaSERKS_.exit
  %17 = getelementptr inbounds nuw i8, ptr %3, i64 1136
  tail call void @_ZN6Assimp13SceneCombiner4CopyEPP10aiMetadataPKS1_(ptr noundef nonnull %17, ptr noundef nonnull %15)
  br label %20

18:                                               ; preds = %2
  %19 = landingpad { ptr, i32 }
          cleanup
  tail call void @_ZdlPvm(ptr noundef nonnull %3, i64 noundef 1144) #24
  resume { ptr, i32 } %19

20:                                               ; preds = %16, %_ZN6aiNodeaSERKS_.exit
  %21 = getelementptr inbounds nuw i8, ptr %3, i64 1128
  %22 = load ptr, ptr %21, align 8
  %.not.i = icmp eq ptr %22, null
  br i1 %.not.i, label %_ZN6Assimp12GetArrayCopyIjEEvRPT_j.exit, label %23

23:                                               ; preds = %20
  %24 = getelementptr inbounds nuw i8, ptr %3, i64 1120
  %25 = load i32, ptr %24, align 8
  %26 = zext i32 %25 to i64
  %27 = shl nuw nsw i64 %26, 2
  %28 = tail call noalias noundef nonnull ptr @_Znam(i64 noundef %27) #22
  store ptr %28, ptr %21, align 8
  tail call void @llvm.memcpy.p0.p0.i64(ptr nonnull align 4 %28, ptr nonnull align 4 %22, i64 %27, i1 false)
  br label %_ZN6Assimp12GetArrayCopyIjEEvRPT_j.exit

_ZN6Assimp12GetArrayCopyIjEEvRPT_j.exit:          ; preds = %20, %23
  %29 = getelementptr inbounds nuw i8, ptr %3, i64 1112
  %30 = getelementptr inbounds nuw i8, ptr %1, i64 1112
  %31 = load ptr, ptr %30, align 8
  %32 = getelementptr inbounds nuw i8, ptr %3, i64 1104
  %33 = load i32, ptr %32, align 8
  %.not.i19 = icmp eq i32 %33, 0
  br i1 %.not.i19, label %_ZN6Assimp12CopyPtrArrayI6aiNodeEEvRPPT_PKPKS2_j.exit.thread, label %34

_ZN6Assimp12CopyPtrArrayI6aiNodeEEvRPPT_PKPKS2_j.exit.thread: ; preds = %_ZN6Assimp12GetArrayCopyIjEEvRPT_j.exit
  store ptr null, ptr %29, align 8
  br label %._crit_edge

34:                                               ; preds = %_ZN6Assimp12GetArrayCopyIjEEvRPT_j.exit
  %35 = zext i32 %33 to i64
  %36 = shl nuw nsw i64 %35, 3
  %37 = tail call noalias noundef nonnull ptr @_Znam(i64 noundef %36) #22
  store ptr %37, ptr %29, align 8
  br label %38

38:                                               ; preds = %34, %38
  %indvars.iv = phi i64 [ 0, %34 ], [ %indvars.iv.next, %38 ]
  %39 = load ptr, ptr %29, align 8
  %40 = getelementptr inbounds nuw ptr, ptr %39, i64 %indvars.iv
  %41 = getelementptr inbounds nuw ptr, ptr %31, i64 %indvars.iv
  %42 = load ptr, ptr %41, align 8
  tail call void @_ZN6Assimp13SceneCombiner4CopyEPP6aiNodePKS1_(ptr noundef %40, ptr noundef %42)
  %indvars.iv.next = add nuw nsw i64 %indvars.iv, 1
  %exitcond.not = icmp eq i64 %indvars.iv.next, %35
  br i1 %exitcond.not, label %_ZN6Assimp12CopyPtrArrayI6aiNodeEEvRPPT_PKPKS2_j.exit, label %38, !llvm.loop !65

_ZN6Assimp12CopyPtrArrayI6aiNodeEEvRPPT_PKPKS2_j.exit: ; preds = %38
  %.pre = load i32, ptr %32, align 8
  %43 = icmp eq i32 %.pre, 0
  br i1 %43, label %._crit_edge, label %.lr.ph

._crit_edge:                                      ; preds = %.lr.ph, %_ZN6Assimp12CopyPtrArrayI6aiNodeEEvRPPT_PKPKS2_j.exit.thread, %_ZN6Assimp12CopyPtrArrayI6aiNodeEEvRPPT_PKPKS2_j.exit
  ret void

.lr.ph:                                           ; preds = %_ZN6Assimp12CopyPtrArrayI6aiNodeEEvRPPT_PKPKS2_j.exit, %.lr.ph
  %indvars.iv24 = phi i64 [ %indvars.iv.next25, %.lr.ph ], [ 0, %_ZN6Assimp12CopyPtrArrayI6aiNodeEEvRPPT_PKPKS2_j.exit ]
  %44 = load ptr, ptr %29, align 8
  %45 = getelementptr inbounds nuw ptr, ptr %44, i64 %indvars.iv24
  %46 = load ptr, ptr %45, align 8
  %47 = getelementptr inbounds nuw i8, ptr %46, i64 1096
  store ptr %3, ptr %47, align 8
  %indvars.iv.next25 = add nuw nsw i64 %indvars.iv24, 1
  %48 = load i32, ptr %32, align 8
  %49 = zext i32 %48 to i64
  %50 = icmp samesign ult i64 %indvars.iv.next25, %49
  br i1 %50, label %.lr.ph, label %._crit_edge, !llvm.loop !66
}